target datalayout = "e-m:e-p270:32:32-p271:32:32-p272:64:64-i64:64-i128:128-f80:128-n8:16:32:64-S128"
target triple = "x86_64-pc-linux-gnu"

%struct.JsonManifestParseContext = type { ptr, ptr, ptr, ptr, ptr, ptr }

@.str.17 = private unnamed_addr constant [62 x i8] c"backup manifest version 1 does not support incremental backup\00", align 1

; Function Attrs: nounwind uwtable
define internal void @manifest_process_version(ptr noundef %0, i32 noundef %1) #0 {
  %3 = alloca ptr, align 8
  %4 = alloca i32, align 4
  store ptr %0, ptr %3, align 8
  store i32 %1, ptr %4, align 4
  %5 = load i32, ptr %4, align 4
  %6 = icmp eq i32 %5, 1
  br i1 %6, label %7, label %12

7:                                                ; preds = %2
  %8 = load ptr, ptr %3, align 8
  %9 = getelementptr inbounds nuw %struct.JsonManifestParseContext, ptr %8, i32 0, i32 5
  %10 = load ptr, ptr %9, align 8
  %11 = load ptr, ptr %3, align 8
  call void (ptr, ptr, ...) %10(ptr noundef %11, ptr noundef @.str.17) #13
  unreachable

12:                                               ; preds = %2
  ret void
}