; Function Attrs: nounwind uwtable
define internal void @manifest_process_version(ptr noundef %0, i32 noundef %1) #0 {
  %3 = icmp eq i32 %1, 1
  br i1 %3, label %4, label %7

4:                                                ; preds = %2
  %5 = getelementptr inbounds nuw i8, ptr %0, i64 40
  %6 = load ptr, ptr %5, align 8
  tail call void (ptr, ptr, ...) %6(ptr noundef %0, ptr noundef nonnull @.str.17) #15
  unreachable

7:                                                ; preds = %2
  ret void
}